; Function Attrs: mustprogress nofree norecurse nosync nounwind willreturn memory(argmem: write) uwtable
define void @_ZN5faiss24ProgressiveDimClusteringC2Eii(ptr nocapture noundef nonnull writeonly align 8 dereferenceable(120) %0, i32 noundef %1, i32 noundef %2) unnamed_addr #2 align 2 {
  %4 = getelementptr inbounds i8, ptr %0, i64 8
  %5 = getelementptr inbounds i8, ptr %0, i64 12
  store i32 1, ptr %5, align 4
  %6 = getelementptr inbounds i8, ptr %0, i64 16
  %7 = getelementptr inbounds i8, ptr %0, i64 24
  tail call void @llvm.memset.p0.i64(ptr noundef nonnull align 8 dereferenceable(5) %6, i8 0, i64 5, i1 false)
  store i32 39, ptr %7, align 8
  %8 = getelementptr inbounds i8, ptr %0, i64 28
  store i32 256, ptr %8, align 4
  %9 = getelementptr inbounds i8, ptr %0, i64 32
  store i32 1234, ptr %9, align 8
  %10 = getelementptr inbounds i8, ptr %0, i64 40
  store i64 32768, ptr %10, align 8
  %11 = getelementptr inbounds i8, ptr %0, i64 48
  store i32 10, ptr %11, align 8
  %12 = getelementptr inbounds i8, ptr %0, i64 52
  store i8 1, ptr %12, align 4
  store i32 10, ptr %4, align 8
  store ptr getelementptr inbounds ({ [4 x ptr] }, ptr @_ZTVN5faiss24ProgressiveDimClusteringE, i64 0, i32 0, i64 2), ptr %0, align 8
  %13 = getelementptr inbounds i8, ptr %0, i64 56
  %14 = sext i32 %1 to i64
  store i64 %14, ptr %13, align 8
  %15 = getelementptr inbounds i8, ptr %0, i64 64
  %16 = sext i32 %2 to i64
  store i64 %16, ptr %15, align 8
  %17 = getelementptr inbounds i8, ptr %0, i64 72
  tail call void @llvm.memset.p0.i64(ptr noundef nonnull align 8 dereferenceable(48) %17, i8 0, i64 48, i1 false)
  ret void
}